; ModuleID = '26/1221.c'
source_filename = "26/1221.c"
target datalayout = "e-m:e-p270:32:32-p271:32:32-p272:64:64-i64:64-f80:128-n8:16:32:64-S128"
target triple = "x86_64-pc-linux-gnu"

; Function Attrs: noinline nounwind uwtable
define dso_local i32 @main() #0 {
  %1 = alloca i32, align 4
  %2 = alloca [101 x i8], align 16
  %3 = alloca i32, align 4
  %4 = alloca i32, align 4
  %5 = alloca i32, align 4
  %6 = alloca i32, align 4
  %7 = alloca i32, align 4
  store i32 0, i32* %1, align 4
  %8 = getelementptr inbounds [101 x i8], [101 x i8]* %2, i64 0, i64 0
  %9 = call i32 (i8*, ...) bitcast (i32 (...)* @gets to i32 (i8*, ...)*)(i8* %8)
  %10 = getelementptr inbounds [101 x i8], [101 x i8]* %2, i64 0, i64 0
  %11 = call i64 @strlen(i8* %10) #3
  %12 = trunc i64 %11 to i32
  store i32 %12, i32* %4, align 4
  store i32 0, i32* %5, align 4
  %13 = load i32, i32* %4, align 4
  store i32 %13, i32* %7, align 4
  store i32 0, i32* %3, align 4
  br label %14

14:                                               ; preds = %56, %0
  %15 = load i32, i32* %3, align 4
  %16 = load i32, i32* %4, align 4
  %17 = icmp slt i32 %15, %16
  br i1 %17, label %18, label %59

18:                                               ; preds = %14
  %19 = load i32, i32* %3, align 4
  %20 = sext i32 %19 to i64
  %21 = getelementptr inbounds [101 x i8], [101 x i8]* %2, i64 0, i64 %20
  %22 = load i8, i8* %21, align 1
  %23 = sext i8 %22 to i32
  %24 = icmp eq i32 %23, 32
  br i1 %24, label %25, label %54

25:                                               ; preds = %18
  %26 = load i32, i32* %5, align 4
  %27 = icmp eq i32 %26, 1
  br i1 %27, label %28, label %52

28:                                               ; preds = %25
  %29 = load i32, i32* %3, align 4
  store i32 %29, i32* %6, align 4
  br label %30

30:                                               ; preds = %44, %28
  %31 = load i32, i32* %6, align 4
  %32 = load i32, i32* %4, align 4
  %33 = sub nsw i32 %32, 1
  %34 = icmp slt i32 %31, %33
  br i1 %34, label %35, label %47

35:                                               ; preds = %30
  %36 = load i32, i32* %6, align 4
  %37 = add nsw i32 %36, 1
  %38 = sext i32 %37 to i64
  %39 = getelementptr inbounds [101 x i8], [101 x i8]* %2, i64 0, i64 %38
  %40 = load i8, i8* %39, align 1
  %41 = load i32, i32* %6, align 4
  %42 = sext i32 %41 to i64
  %43 = getelementptr inbounds [101 x i8], [101 x i8]* %2, i64 0, i64 %42
  store i8 %40, i8* %43, align 1
  br label %44

44:                                               ; preds = %35
  %45 = load i32, i32* %6, align 4
  %46 = add nsw i32 %45, 1
  store i32 %46, i32* %6, align 4
  br label %30

47:                                               ; preds = %30
  %48 = load i32, i32* %7, align 4
  %49 = add nsw i32 %48, -1
  store i32 %49, i32* %7, align 4
  %50 = load i32, i32* %3, align 4
  %51 = add nsw i32 %50, -1
  store i32 %51, i32* %3, align 4
  br label %53

52:                                               ; preds = %25
  store i32 1, i32* %5, align 4
  br label %53

53:                                               ; preds = %52, %47
  br label %55

54:                                               ; preds = %18
  store i32 0, i32* %5, align 4
  br label %55

55:                                               ; preds = %54, %53
  br label %56

56:                                               ; preds = %55
  %57 = load i32, i32* %3, align 4
  %58 = add nsw i32 %57, 1
  store i32 %58, i32* %3, align 4
  br label %14

59:                                               ; preds = %14
  %60 = load i32, i32* %7, align 4
  %61 = sext i32 %60 to i64
  %62 = getelementptr inbounds [101 x i8], [101 x i8]* %2, i64 0, i64 %61
  store i8 0, i8* %62, align 1
  %63 = getelementptr inbounds [101 x i8], [101 x i8]* %2, i64 0, i64 0
  %64 = call i32 @puts(i8* %63)
  ret i32 0
}

declare dso_local i32 @gets(...) #1

; Function Attrs: nounwind readonly
declare dso_local i64 @strlen(i8*) #2

declare dso_local i32 @puts(i8*) #1


!llvm.module.flags = !{!0}
!llvm.ident = !{!1}

!0 = !{i32 1, !"wchar_size", i32 4}
!1 = !{!"clang version 10.0.0-4ubuntu1 "}
